target datalayout = "e-m:e-p270:32:32-p271:32:32-p272:64:64-i64:64-i128:128-f80:128-n8:16:32:64-S128"
target triple = "x86_64-pc-linux-gnu"

%"class.std::__1::strstreambuf" = type { %"class.std::__1::basic_streambuf", i32, i64, ptr, ptr }
%"class.std::__1::basic_streambuf" = type { ptr, %"class.std::__1::locale", ptr, ptr, ptr, ptr, ptr, ptr }
%"class.std::__1::locale" = type { ptr }

@_ZTVNSt3__115basic_streambufIcNS_11char_traitsIcEEEE = external unnamed_addr constant { [16 x ptr] }, align 8

; Function Attrs: mustprogress nounwind uwtable
define available_externally void @_ZNSt3__115basic_streambufIcNS_11char_traitsIcEEED2Ev(ptr noundef nonnull align 8 dereferenceable(64) %0) unnamed_addr #1 align 2 {
  %2 = alloca ptr, align 8
  store ptr %0, ptr %2, align 8, !tbaa !23
  %3 = load ptr, ptr %2, align 8
  store ptr getelementptr inbounds inrange(-16, 112) ({ [16 x ptr] }, ptr @_ZTVNSt3__115basic_streambufIcNS_11char_traitsIcEEEE, i32 0, i32 0, i32 2), ptr %3, align 8, !tbaa !11
  %4 = getelementptr inbounds nuw %"class.std::__1::basic_streambuf", ptr %3, i32 0, i32 1
  call void @_ZNSt3__16localeD1Ev(ptr noundef nonnull align 8 dereferenceable(8) %4) #14
  ret void
}

; Function Attrs: mustprogress nounwind uwtable
define linkonce_odr hidden noundef ptr @_ZNKSt3__115basic_streambufIcNS_11char_traitsIcEEE5ebackB8ne210000Ev(ptr noundef nonnull align 8 dereferenceable(64) %0) #1 comdat align 2 {
  %2 = alloca ptr, align 8
  store ptr %0, ptr %2, align 8, !tbaa !23
  %3 = load ptr, ptr %2, align 8
  %4 = getelementptr inbounds nuw %"class.std::__1::basic_streambuf", ptr %3, i32 0, i32 2
  %5 = load ptr, ptr %4, align 8, !tbaa !25
  ret ptr %5
}

; Function Attrs: mustprogress nounwind uwtable
define dso_local void @_ZNSt3__112strstreambufD2Ev(ptr noundef nonnull align 8 dereferenceable(96) %0) unnamed_addr #1 align 2 personality ptr @__gxx_personality_v0 {
  %2 = alloca ptr, align 8
  store ptr %0, ptr %2, align 8, !tbaa !4
  %3 = load ptr, ptr %2, align 8
  store ptr getelementptr inbounds inrange(-16, 112) ({ [16 x ptr] }, ptr @_ZTVNSt3__112strstreambufE, i32 0, i32 0, i32 2), ptr %3, align 8, !tbaa !11
  %4 = invoke noundef ptr @_ZNKSt3__115basic_streambufIcNS_11char_traitsIcEEE5ebackB8ne210000Ev(ptr noundef nonnull align 8 dereferenceable(64) %3)
          to label %5 unwind label %35

5:                                                ; preds = %1
  %6 = icmp ne ptr %4, null
  br i1 %6, label %7, label %34

7:                                                ; preds = %5
  %8 = getelementptr inbounds nuw %"class.std::__1::strstreambuf", ptr %3, i32 0, i32 1
  %9 = load i32, ptr %8, align 8, !tbaa !13
  %10 = and i32 %9, 1
  %11 = icmp ne i32 %10, 0
  br i1 %11, label %12, label %34

12:                                               ; preds = %7
  %13 = getelementptr inbounds nuw %"class.std::__1::strstreambuf", ptr %3, i32 0, i32 1
  %14 = load i32, ptr %13, align 8, !tbaa !13
  %15 = and i32 %14, 8
  %16 = icmp eq i32 %15, 0
  br i1 %16, label %17, label %34

17:                                               ; preds = %12
  %18 = getelementptr inbounds nuw %"class.std::__1::strstreambuf", ptr %3, i32 0, i32 4
  %19 = load ptr, ptr %18, align 8, !tbaa !22
  %20 = icmp ne ptr %19, null
  br i1 %20, label %21, label %27

21:                                               ; preds = %17
  %22 = getelementptr inbounds nuw %"class.std::__1::strstreambuf", ptr %3, i32 0, i32 4
  %23 = load ptr, ptr %22, align 8, !tbaa !22
  %24 = invoke noundef ptr @_ZNKSt3__115basic_streambufIcNS_11char_traitsIcEEE5ebackB8ne210000Ev(ptr noundef nonnull align 8 dereferenceable(64) %3)
          to label %25 unwind label %35

25:                                               ; preds = %21
  invoke void %23(ptr noundef %24)
          to label %26 unwind label %35

26:                                               ; preds = %25
  br label %33

27:                                               ; preds = %17
  %28 = invoke noundef ptr @_ZNKSt3__115basic_streambufIcNS_11char_traitsIcEEE5ebackB8ne210000Ev(ptr noundef nonnull align 8 dereferenceable(64) %3)
          to label %29 unwind label %35

29:                                               ; preds = %27
  %30 = icmp eq ptr %28, null
  br i1 %30, label %32, label %31

31:                                               ; preds = %29
  call void @_ZdaPv(ptr noundef %28) #16
  br label %32

32:                                               ; preds = %31, %29
  br label %33

33:                                               ; preds = %32, %26
  br label %34

34:                                               ; preds = %33, %12, %7, %5
  call void @_ZNSt3__115basic_streambufIcNS_11char_traitsIcEEED2Ev(ptr noundef nonnull align 8 dereferenceable(64) %3) #14
  ret void

35:                                               ; preds = %27, %25, %21, %1
  %36 = landingpad { ptr, i32 }
          catch ptr null
  %37 = extractvalue { ptr, i32 } %36, 0
  call void @__clang_call_terminate(ptr %37) #17
  unreachable
}